MPASM 5.86  /HOME/ESTUARDOLH/MPLABXPROJECTS/   3-4-2020  21:30:48         PAGE  1


LOC  OBJECT CODE     LINE SOURCE TEXT
  VALUE

Warning[205]: Found directive in column 1. (LIST)
                      00001 LIST    P=16F84A
                      00002 
  00000005            00003 PORTA                   EQU 0x05
  00000006            00004 PORTB                   EQU 0x06
  0000000C            00005 CONTADORCICLO           EQU 0x0C
  0000000D            00006 CONTADORINTER           EQU 0x0D
                      00007 
Warning[205]: Found directive in column 1. (ORG)
                      00008 ORG 0x00
Warning[203]: Found opcode in column 1. (BSF)
0000   1683           00009 BSF B'00000011',5           ; bank 1
Warning[203]: Found opcode in column 1. (MOVLW)
0001   3000           00010 MOVLW   B'00000000'         ; outputs
Warning[203]: Found opcode in column 1. (MOVWF)
0002   0086           00011 MOVWF   PORTB               ; para port B
Warning[203]: Found opcode in column 1. (BCF)
0003   1283           00012 BCF         B'00000011',5   ; bank 0
                      00013 
Warning[203]: Found opcode in column 1. (BSF)
0004   1683           00014 BSF         B'00000011',5   ; bank 1
Warning[203]: Found opcode in column 1. (MOVLW)
0005   3001           00015 MOVLW   B'00000001'         ; un input
Warning[203]: Found opcode in column 1. (MOVWF)
0006   0085           00016 MOVWF   PORTA
Warning[203]: Found opcode in column 1. (BCF)
0007   1283           00017 BCF         B'00000011',5   ; bank 0
                      00018 
0008   1006           00019 LEDVERDE BCF PORTB,0
0009   1086           00020     BCF PORTB,1
000A   1506           00021     BSF PORTB,2                           ; turn on pin B2
000B   2???           00022     CALL CICLOVERDE                       ; go to cycle
                      00023 
000C   1006           00024 LEDAMARILLA BCF PORTB,0
000D   1486           00025     BSF PORTB,1                           ; turn on pin B1
000E   1106           00026     BCF PORTB,2
000F   2???           00027     CALL CICLOAMARILLA                    ; go to cycle
                      00028 
0010   1406           00029 LEDROJA BSF PORTB,0                       ; turn on pin B0
0011   1086           00030     BCF PORTB,1
0012   1106           00031     BCF PORTB,2    
0013   2???           00032     CALL CICLOROJA                        ; go to cycle
                      00033 
0014   300A           00034 CICLOVERDE MOVLW B'00001010'              ; diez
0015   008C           00035     MOVWF CONTADORCICLO                   ; init counter
0016   1805           00036 CONTARVERDE  BTFSC PORTA,0                ; push button pressed? then skip next
0017   2???           00037     CALL INTERROJA                        ; interrupt to red
                      00038     
0018   0B8C           00039     DECFSZ CONTADORCICLO,1                ; zero reached? then skip
0019   2???           00040     GOTO CONTARVERDE                      ; while greater than cero
001A   2???           00041     CALL LEDAMARILLA                      ; change to red
                      00042 
001B   300A           00043 CICLOAMARILLA MOVLW B'00001010'           ; ten
MPASM 5.86  /HOME/ESTUARDOLH/MPLABXPROJECTS/   3-4-2020  21:30:48         PAGE  2


LOC  OBJECT CODE     LINE SOURCE TEXT
  VALUE

001C   008C           00044     MOVWF CONTADORCICLO                   ; init counter
001D   0B8C           00045 CONTARAMARILLA  DECFSZ CONTADORCICLO,1    ; zero reached? then skip next
001E   2???           00046     GOTO CONTARAMARILLA                   ; while greater than cero
001F   2???           00047     CALL LEDROJA                         ; change to green
                      00048 
0020   300A           00049 CICLOROJA MOVLW B'00001010'               ; ten
0021   008C           00050     MOVWF CONTADORCICLO                   ; init counter
0022   1805           00051 CONTARROJA  BTFSC PORTA,0                 ; push button pressed? then skip next
0023   2???           00052     CALL INTERVERDE                       ; interrupt to green
                      00053     
0024   0B8C           00054     DECFSZ CONTADORCICLO,1                ; zero reached? then skip next
0025   2???           00055     GOTO CONTARROJA                       ; while greater than cero
0026   2???           00056     CALL LEDVERDE                      ; change to yellow
                      00057 
0027   0A8D           00058 INTERVERDE INCF CONTADORINTER,f           ; increase counter
0028   180D           00059     BTFSC CONTADORINTER,0                 ; bit one is clear? then skip next
0029   1586           00060     BSF PORTB,3                           ; turn on bit one
002A   0000           00061     NOP                                   ; no operation
002B   1C0D           00062     BTFSS CONTADORINTER,0                 ; bit one is set? then skip next
002C   1186           00063     BCF PORTB,3                           ; turn off bit one
002D   0000           00064     NOP                                   ; no operation
                      00065     
002E   188D           00066     BTFSC CONTADORINTER,1
002F   1606           00067     BSF PORTB,4
0030   0000           00068     NOP
0031   1C8D           00069     BTFSS CONTADORINTER,1
0032   1206           00070     BCF PORTB,4
0033   0000           00071     NOP
                      00072     
0034   190D           00073     BTFSC CONTADORINTER,2
0035   1686           00074     BSF PORTB,5
0036   0000           00075     NOP
0037   1D0D           00076     BTFSS CONTADORINTER,2
0038   1286           00077     BCF PORTB,5
0039   0000           00078     NOP
                      00079     
003A   198D           00080     BTFSC CONTADORINTER,3
003B   1706           00081     BSF PORTB,6
003C   0000           00082     NOP
003D   1D8D           00083     BTFSS CONTADORINTER,3
003E   1306           00084     BCF PORTB,6
003F   0000           00085     NOP
0040   2???           00086     CALL LEDVERDE
0041   0A8D           00087 INTERROJA INCF CONTADORINTER,f
0042   180D           00088     BTFSC CONTADORINTER,0
0043   1586           00089     BSF PORTB,3
0044   0000           00090     NOP
0045   1C0D           00091     BTFSS CONTADORINTER,0
0046   1186           00092     BCF PORTB,3
0047   0000           00093     NOP
                      00094     
0048   188D           00095     BTFSC CONTADORINTER,1
0049   1606           00096     BSF PORTB,4
MPASM 5.86  /HOME/ESTUARDOLH/MPLABXPROJECTS/   3-4-2020  21:30:48         PAGE  3


LOC  OBJECT CODE     LINE SOURCE TEXT
  VALUE

004A   0000           00097     NOP
004B   1C8D           00098     BTFSS CONTADORINTER,1
004C   1206           00099     BCF PORTB,4
004D   0000           00100     NOP
                      00101     
004E   190D           00102     BTFSC CONTADORINTER,2
004F   1686           00103     BSF PORTB,5
0050   0000           00104     NOP
0051   1D0D           00105     BTFSS CONTADORINTER,2
0052   1286           00106     BCF PORTB,5
0053   0000           00107     NOP
                      00108     
0054   198D           00109     BTFSC CONTADORINTER,3
0055   1706           00110     BSF PORTB,6
0056   0000           00111     NOP
0057   1D8D           00112     BTFSS CONTADORINTER,3
0058   1306           00113     BCF PORTB,6
0059   0000           00114     NOP
005A   2???           00115     CALL LEDROJA
Warning[205]: Found directive in column 1. (END)
                      00116 END
MPASM 5.86  /HOME/ESTUARDOLH/MPLABXPROJECTS/   3-4-2020  21:30:48         PAGE  4


SYMBOL TABLE
  LABEL                             VALUE 

CICLOAMARILLA                     0000001B
CICLOROJA                         00000020
CICLOVERDE                        00000014
CONTADORCICLO                     0000000C
CONTADORINTER                     0000000D
CONTARAMARILLA                    0000001D
CONTARROJA                        00000022
CONTARVERDE                       00000016
INTERROJA                         00000041
INTERVERDE                        00000027
LEDAMARILLA                       0000000C
LEDROJA                           00000010
LEDVERDE                          00000008
PORTA                             00000005
PORTB                             00000006
__16F84A                          00000001

Errors   :     0
Warnings :    11 reported,     0 suppressed
Messages :     0 reported,     0 suppressed

